; Function Attrs: nounwind sspstrong uwtable
define internal fastcc double @big_fdiv(i64 noundef %0, i64 noundef %1, i64 noundef %2) unnamed_addr #0 {
  %4 = alloca i64, align 8
  call void @llvm.lifetime.start.p0(i64 8, ptr nonnull %4) #27
  %5 = inttoptr i64 %0 to ptr
  %6 = load i64, ptr %5, align 8, !tbaa !11
  %7 = and i64 %6, 16384
  %.not.i.i = icmp eq i64 %7, 0
  br i1 %.not.i.i, label %12, label %8

8:                                                ; preds = %3
  %9 = lshr i64 %6, 15
  %10 = and i64 %9, 7
  %11 = getelementptr inbounds nuw i8, ptr %5, i64 16
  br label %BIGNUM_DIGITS.exit.i

12:                                               ; preds = %3
  %13 = getelementptr inbounds nuw i8, ptr %5, i64 16
  %14 = load i64, ptr %13, align 8, !tbaa !13
  %15 = getelementptr inbounds nuw i8, ptr %5, i64 24
  %16 = load ptr, ptr %15, align 8, !tbaa !13
  br label %BIGNUM_DIGITS.exit.i

BIGNUM_DIGITS.exit.i:                             ; preds = %12, %8
  %.0.i21.i = phi i64 [ %10, %8 ], [ %14, %12 ]
  %.0.i16.i = phi ptr [ %11, %8 ], [ %16, %12 ]
  %17 = icmp eq i64 %.0.i21.i, 0
  br i1 %17, label %bigtrunc.exit, label %.preheader.i

.preheader.i:                                     ; preds = %BIGNUM_DIGITS.exit.i, %19
  %.012.i = phi i64 [ %18, %19 ], [ %.0.i21.i, %BIGNUM_DIGITS.exit.i ]
  %18 = add i64 %.012.i, -1
  %.not.i = icmp eq i64 %18, 0
  br i1 %.not.i, label %.critedge.i, label %19

19:                                               ; preds = %.preheader.i
  %20 = getelementptr i32, ptr %.0.i16.i, i64 %18
  %21 = load i32, ptr %20, align 4, !tbaa !18
  %.not14.i = icmp eq i32 %21, 0
  br i1 %.not14.i, label %.preheader.i, label %.critedge.i, !llvm.loop !63

.critedge.i:                                      ; preds = %19, %.preheader.i
  br i1 %.not.i.i, label %22, label %25

22:                                               ; preds = %.critedge.i
  %23 = getelementptr inbounds nuw i8, ptr %5, i64 16
  %24 = load i64, ptr %23, align 8, !tbaa !13
  br label %BIGNUM_LEN.exit19.i

25:                                               ; preds = %.critedge.i
  %26 = lshr i64 %6, 15
  %27 = and i64 %26, 7
  br label %BIGNUM_LEN.exit19.i

BIGNUM_LEN.exit19.i:                              ; preds = %25, %22
  %.0.i18.i = phi i64 [ %27, %25 ], [ %24, %22 ]
  %28 = icmp ugt i64 %.0.i18.i, %.012.i
  br i1 %28, label %29, label %bigtrunc.exit

29:                                               ; preds = %BIGNUM_LEN.exit19.i
  tail call void @rb_big_resize(i64 noundef %0, i64 noundef %.012.i)
  %.pre = load i64, ptr %5, align 8, !tbaa !11
  br label %bigtrunc.exit

bigtrunc.exit:                                    ; preds = %BIGNUM_DIGITS.exit.i, %BIGNUM_LEN.exit19.i, %29
  %30 = phi i64 [ %6, %BIGNUM_DIGITS.exit.i ], [ %6, %BIGNUM_LEN.exit19.i ], [ %.pre, %29 ]
  %31 = and i64 %30, 16384
  %.not.i23 = icmp eq i64 %31, 0
  br i1 %.not.i23, label %36, label %32

32:                                               ; preds = %bigtrunc.exit
  %33 = lshr i64 %30, 15
  %34 = and i64 %33, 7
  %35 = getelementptr inbounds nuw i8, ptr %5, i64 16
  br label %BIGNUM_DIGITS.exit

36:                                               ; preds = %bigtrunc.exit
  %37 = getelementptr inbounds nuw i8, ptr %5, i64 16
  %38 = load i64, ptr %37, align 8, !tbaa !13
  %39 = getelementptr inbounds nuw i8, ptr %5, i64 24
  %40 = load ptr, ptr %39, align 8, !tbaa !13
  br label %BIGNUM_DIGITS.exit

BIGNUM_DIGITS.exit:                               ; preds = %32, %36
  %.0.i29 = phi i64 [ %34, %32 ], [ %38, %36 ]
  %.0.i25 = phi ptr [ %35, %32 ], [ %40, %36 ]
  %41 = shl i64 %.0.i29, 5
  %42 = getelementptr i32, ptr %.0.i25, i64 %.0.i29
  %43 = getelementptr i8, ptr %42, i64 -4
  %44 = load i32, ptr %43, align 4, !tbaa !18
  %45 = tail call range(i32 0, 33) i32 @llvm.ctlz.i32(i32 %44, i1 false)
  %46 = zext nneg i32 %45 to i64
  %47 = sub i64 %41, %46
  %48 = add i64 %47, -128
  %49 = icmp sgt i64 %48, 32
  %50 = add i64 %47, -160
  %spec.store.select = tail call i64 @llvm.smin.i64(i64 %48, i64 0)
  %.0 = select i1 %49, i64 %50, i64 %spec.store.select
  %.not = icmp eq i64 %.0, 0
  br i1 %.not, label %55, label %big_shift.exit

big_shift.exit:                                   ; preds = %BIGNUM_DIGITS.exit
  %spec.select = tail call i64 @llvm.abs.i64(i64 %.0, i1 false)
  %.0.lobit = lshr i64 %.0, 63
  %spec.select31 = trunc nuw nsw i64 %.0.lobit to i32
  %51 = lshr i64 %spec.select, 5
  %52 = trunc i64 %spec.select to i32
  %53 = and i32 %52, 31
  %54 = tail call fastcc i64 @big_shift3(i64 noundef %0, i32 noundef %spec.select31, i64 noundef %51, i32 noundef %53)
  br label %55

55:                                               ; preds = %big_shift.exit, %BIGNUM_DIGITS.exit
  %.020 = phi i64 [ %54, %big_shift.exit ], [ %0, %BIGNUM_DIGITS.exit ]
  call fastcc void @bigdivrem(i64 noundef %.020, i64 noundef %1, ptr noundef nonnull %4, ptr noundef null)
  %56 = sub i64 %.0, %2
  %57 = icmp sgt i64 %56, 2147483647
  br i1 %57, label %65, label %58

58:                                               ; preds = %55
  %59 = icmp slt i64 %56, -2147483648
  br i1 %59, label %65, label %60

60:                                               ; preds = %58
  %61 = load i64, ptr %4, align 8, !tbaa !7
  %62 = call fastcc double @big2dbl(i64 noundef %61)
  %63 = trunc nsw i64 %56 to i32
  %64 = call double @ldexp(double noundef %62, i32 noundef %63) #27, !tbaa !18
  br label %65

65:                                               ; preds = %58, %55, %60
  %.019 = phi double [ %64, %60 ], [ 0x7FF0000000000000, %55 ], [ 0.000000e+00, %58 ]
  call void @llvm.lifetime.end.p0(i64 8, ptr nonnull %4) #27
  ret double %.019
}